target datalayout = "e-m:e-p270:32:32-p271:32:32-p272:64:64-i64:64-i128:128-f80:128-n8:16:32:64-S128"
target triple = "x86_64-pc-linux-gnu"

%struct.SoftFloat = type { i32, i32 }

; Function Attrs: nounwind uwtable
define internal void @sbr_hf_g_filt_c(ptr noundef %0, ptr noundef %1, ptr noundef %2, i32 noundef %3, i64 noundef %4) #1 {
  %6 = alloca ptr, align 8
  %7 = alloca ptr, align 8
  %8 = alloca ptr, align 8
  %9 = alloca i32, align 4
  %10 = alloca i64, align 8
  %11 = alloca i32, align 4
  %12 = alloca i64, align 8
  %13 = alloca i64, align 8
  store ptr %0, ptr %6, align 8, !tbaa !21
  store ptr %1, ptr %7, align 8, !tbaa !21
  store ptr %2, ptr %8, align 8, !tbaa !38
  store i32 %3, ptr %9, align 4, !tbaa !23
  store i64 %4, ptr %10, align 8, !tbaa !27
  call void @llvm.lifetime.start.p0(i64 4, ptr %11) #8
  call void @llvm.lifetime.start.p0(i64 8, ptr %12) #8
  store i32 0, ptr %11, align 4, !tbaa !23
  br label %14

14:                                               ; preds = %112, %5
  %15 = load i32, ptr %11, align 4, !tbaa !23
  %16 = load i32, ptr %9, align 4, !tbaa !23
  %17 = icmp slt i32 %15, %16
  br i1 %17, label %18, label %115

18:                                               ; preds = %14
  %19 = load ptr, ptr %8, align 8, !tbaa !38
  %20 = load i32, ptr %11, align 4, !tbaa !23
  %21 = sext i32 %20 to i64
  %22 = getelementptr inbounds %struct.SoftFloat, ptr %19, i64 %21
  %23 = getelementptr inbounds nuw %struct.SoftFloat, ptr %22, i32 0, i32 1
  %24 = load i32, ptr %23, align 4, !tbaa !41
  %25 = sub nsw i32 22, %24
  %26 = icmp slt i32 %25, 61
  br i1 %26, label %27, label %111

27:                                               ; preds = %18
  call void @llvm.lifetime.start.p0(i64 8, ptr %13) #8
  %28 = load ptr, ptr %8, align 8, !tbaa !38
  %29 = load i32, ptr %11, align 4, !tbaa !23
  %30 = sext i32 %29 to i64
  %31 = getelementptr inbounds %struct.SoftFloat, ptr %28, i64 %30
  %32 = getelementptr inbounds nuw %struct.SoftFloat, ptr %31, i32 0, i32 1
  %33 = load i32, ptr %32, align 4, !tbaa !41
  %34 = sub nsw i32 22, %33
  %35 = zext i32 %34 to i64
  %36 = shl i64 1, %35
  store i64 %36, ptr %13, align 8, !tbaa !27
  %37 = load ptr, ptr %7, align 8, !tbaa !21
  %38 = load i32, ptr %11, align 4, !tbaa !23
  %39 = sext i32 %38 to i64
  %40 = getelementptr inbounds [40 x [2 x i32]], ptr %37, i64 %39
  %41 = load i64, ptr %10, align 8, !tbaa !27
  %42 = getelementptr inbounds [40 x [2 x i32]], ptr %40, i64 0, i64 %41
  %43 = getelementptr inbounds [2 x i32], ptr %42, i64 0, i64 0
  %44 = load i32, ptr %43, align 4, !tbaa !23
  %45 = sext i32 %44 to i64
  %46 = load ptr, ptr %8, align 8, !tbaa !38
  %47 = load i32, ptr %11, align 4, !tbaa !23
  %48 = sext i32 %47 to i64
  %49 = getelementptr inbounds %struct.SoftFloat, ptr %46, i64 %48
  %50 = getelementptr inbounds nuw %struct.SoftFloat, ptr %49, i32 0, i32 0
  %51 = load i32, ptr %50, align 4, !tbaa !43
  %52 = add nsw i32 %51, 64
  %53 = ashr i32 %52, 7
  %54 = sext i32 %53 to i64
  %55 = mul nsw i64 %45, %54
  store i64 %55, ptr %12, align 8, !tbaa !27
  %56 = load i64, ptr %12, align 8, !tbaa !27
  %57 = load i64, ptr %13, align 8, !tbaa !27
  %58 = add nsw i64 %56, %57
  %59 = load ptr, ptr %8, align 8, !tbaa !38
  %60 = load i32, ptr %11, align 4, !tbaa !23
  %61 = sext i32 %60 to i64
  %62 = getelementptr inbounds %struct.SoftFloat, ptr %59, i64 %61
  %63 = getelementptr inbounds nuw %struct.SoftFloat, ptr %62, i32 0, i32 1
  %64 = load i32, ptr %63, align 4, !tbaa !41
  %65 = sub nsw i32 23, %64
  %66 = zext i32 %65 to i64
  %67 = ashr i64 %58, %66
  %68 = trunc i64 %67 to i32
  %69 = load ptr, ptr %6, align 8, !tbaa !21
  %70 = load i32, ptr %11, align 4, !tbaa !23
  %71 = sext i32 %70 to i64
  %72 = getelementptr inbounds [2 x i32], ptr %69, i64 %71
  %73 = getelementptr inbounds [2 x i32], ptr %72, i64 0, i64 0
  store i32 %68, ptr %73, align 4, !tbaa !23
  %74 = load ptr, ptr %7, align 8, !tbaa !21
  %75 = load i32, ptr %11, align 4, !tbaa !23
  %76 = sext i32 %75 to i64
  %77 = getelementptr inbounds [40 x [2 x i32]], ptr %74, i64 %76
  %78 = load i64, ptr %10, align 8, !tbaa !27
  %79 = getelementptr inbounds [40 x [2 x i32]], ptr %77, i64 0, i64 %78
  %80 = getelementptr inbounds [2 x i32], ptr %79, i64 0, i64 1
  %81 = load i32, ptr %80, align 4, !tbaa !23
  %82 = sext i32 %81 to i64
  %83 = load ptr, ptr %8, align 8, !tbaa !38
  %84 = load i32, ptr %11, align 4, !tbaa !23
  %85 = sext i32 %84 to i64
  %86 = getelementptr inbounds %struct.SoftFloat, ptr %83, i64 %85
  %87 = getelementptr inbounds nuw %struct.SoftFloat, ptr %86, i32 0, i32 0
  %88 = load i32, ptr %87, align 4, !tbaa !43
  %89 = add nsw i32 %88, 64
  %90 = ashr i32 %89, 7
  %91 = sext i32 %90 to i64
  %92 = mul nsw i64 %82, %91
  store i64 %92, ptr %12, align 8, !tbaa !27
  %93 = load i64, ptr %12, align 8, !tbaa !27
  %94 = load i64, ptr %13, align 8, !tbaa !27
  %95 = add nsw i64 %93, %94
  %96 = load ptr, ptr %8, align 8, !tbaa !38
  %97 = load i32, ptr %11, align 4, !tbaa !23
  %98 = sext i32 %97 to i64
  %99 = getelementptr inbounds %struct.SoftFloat, ptr %96, i64 %98
  %100 = getelementptr inbounds nuw %struct.SoftFloat, ptr %99, i32 0, i32 1
  %101 = load i32, ptr %100, align 4, !tbaa !41
  %102 = sub nsw i32 23, %101
  %103 = zext i32 %102 to i64
  %104 = ashr i64 %95, %103
  %105 = trunc i64 %104 to i32
  %106 = load ptr, ptr %6, align 8, !tbaa !21
  %107 = load i32, ptr %11, align 4, !tbaa !23
  %108 = sext i32 %107 to i64
  %109 = getelementptr inbounds [2 x i32], ptr %106, i64 %108
  %110 = getelementptr inbounds [2 x i32], ptr %109, i64 0, i64 1
  store i32 %105, ptr %110, align 4, !tbaa !23
  call void @llvm.lifetime.end.p0(i64 8, ptr %13) #8
  br label %111

111:                                              ; preds = %27, %18
  br label %112

112:                                              ; preds = %111
  %113 = load i32, ptr %11, align 4, !tbaa !23
  %114 = add nsw i32 %113, 1
  store i32 %114, ptr %11, align 4, !tbaa !23
  br label %14, !llvm.loop !44

115:                                              ; preds = %14
  call void @llvm.lifetime.end.p0(i64 8, ptr %12) #8
  call void @llvm.lifetime.end.p0(i64 4, ptr %11) #8
  ret void
}