; Function Attrs: nofree norecurse nosync nounwind memory(argmem: readwrite) uwtable
define internal void @sbr_hf_g_filt_c(ptr noundef writeonly captures(none) %0, ptr noundef readonly captures(none) %1, ptr noundef readonly captures(none) %2, i32 noundef %3, i64 noundef %4) #1 {
  %6 = icmp sgt i32 %3, 0
  br i1 %6, label %.lr.ph.preheader, label %._crit_edge

.lr.ph.preheader:                                 ; preds = %5
  %wide.trip.count = zext nneg i32 %3 to i64
  br label %.lr.ph

.lr.ph:                                           ; preds = %.lr.ph.preheader, %44
  %indvars.iv = phi i64 [ 0, %.lr.ph.preheader ], [ %indvars.iv.next, %44 ]
  %7 = getelementptr inbounds nuw %struct.SoftFloat, ptr %2, i64 %indvars.iv
  %8 = getelementptr inbounds nuw i8, ptr %7, i64 4
  %9 = load i32, ptr %8, align 4, !tbaa !36
  %10 = icmp sgt i32 %9, -39
  br i1 %10, label %11, label %44

11:                                               ; preds = %.lr.ph
  %12 = sub nsw i32 22, %9
  %13 = zext nneg i32 %12 to i64
  %14 = shl nuw i64 1, %13
  %15 = getelementptr inbounds [40 x [2 x i32]], ptr %1, i64 %indvars.iv, i64 %4
  %16 = load i32, ptr %15, align 4, !tbaa !19
  %17 = sext i32 %16 to i64
  %18 = load i32, ptr %7, align 4, !tbaa !38
  %19 = add nsw i32 %18, 64
  %20 = ashr i32 %19, 7
  %21 = sext i32 %20 to i64
  %22 = mul nsw i64 %21, %17
  %23 = add nsw i64 %22, %14
  %24 = sub nsw i32 23, %9
  %25 = zext nneg i32 %24 to i64
  %26 = ashr i64 %23, %25
  %27 = trunc i64 %26 to i32
  %28 = getelementptr inbounds nuw [2 x i32], ptr %0, i64 %indvars.iv
  store i32 %27, ptr %28, align 4, !tbaa !19
  %29 = getelementptr inbounds nuw i8, ptr %15, i64 4
  %30 = load i32, ptr %29, align 4, !tbaa !19
  %31 = sext i32 %30 to i64
  %32 = load i32, ptr %7, align 4, !tbaa !38
  %33 = add nsw i32 %32, 64
  %34 = ashr i32 %33, 7
  %35 = sext i32 %34 to i64
  %36 = mul nsw i64 %35, %31
  %37 = add nsw i64 %36, %14
  %38 = load i32, ptr %8, align 4, !tbaa !36
  %39 = sub nsw i32 23, %38
  %40 = zext nneg i32 %39 to i64
  %41 = ashr i64 %37, %40
  %42 = trunc i64 %41 to i32
  %43 = getelementptr inbounds nuw i8, ptr %28, i64 4
  store i32 %42, ptr %43, align 4, !tbaa !19
  br label %44

44:                                               ; preds = %.lr.ph, %11
  %indvars.iv.next = add nuw nsw i64 %indvars.iv, 1
  %exitcond.not = icmp eq i64 %indvars.iv.next, %wide.trip.count
  br i1 %exitcond.not, label %._crit_edge, label %.lr.ph, !llvm.loop !39

._crit_edge:                                      ; preds = %44, %5
  ret void
}